; Function Attrs: nounwind sspstrong uwtable
define internal void @virtio_pci_vmstate_change(ptr noundef %0, i1 noundef zeroext %1) #0 {
  %3 = getelementptr inbounds nuw i8, ptr %0, i64 34080
  %4 = getelementptr i8, ptr %0, i64 34160
  %.val = load ptr, ptr %4, align 8
  %.not.i = icmp eq ptr %.val, null
  br i1 %.not.i, label %virtio_bus_get_device.exit, label %5

5:                                                ; preds = %2
  %6 = getelementptr inbounds nuw i8, ptr %.val, i64 16
  %7 = load ptr, ptr %6, align 8
  br label %virtio_bus_get_device.exit

virtio_bus_get_device.exit:                       ; preds = %2, %5
  %8 = phi ptr [ %7, %5 ], [ null, %2 ]
  br i1 %1, label %9, label %28

9:                                                ; preds = %virtio_bus_get_device.exit
  %10 = getelementptr inbounds nuw i8, ptr %0, i64 5348
  %11 = load i32, ptr %10, align 4
  %12 = and i32 %11, 1
  %.not = icmp eq i32 %12, 0
  br i1 %.not, label %26, label %13

13:                                               ; preds = %9
  %14 = getelementptr inbounds nuw i8, ptr %8, i64 160
  %15 = load i8, ptr %14, align 8
  %16 = and i8 %15, 2
  %.not9 = icmp eq i8 %16, 0
  br i1 %.not9, label %26, label %17

17:                                               ; preds = %13
  %18 = getelementptr inbounds nuw i8, ptr %0, i64 160
  %19 = load ptr, ptr %18, align 16
  %20 = getelementptr inbounds nuw i8, ptr %19, i64 4
  %21 = load i8, ptr %20, align 1
  %22 = zext i8 %21 to i32
  %23 = and i32 %22, 4
  %.not10 = icmp eq i32 %23, 0
  br i1 %.not10, label %24, label %26

24:                                               ; preds = %17
  %25 = or disjoint i32 %22, 4
  tail call void @pci_default_write_config(ptr noundef nonnull %0, i32 noundef 4, i32 noundef %25, i32 noundef 1) #15
  br label %26

26:                                               ; preds = %24, %17, %13, %9
  %27 = tail call i32 @virtio_bus_start_ioeventfd(ptr noundef nonnull %3) #15
  br label %29

28:                                               ; preds = %virtio_bus_get_device.exit
  tail call void @virtio_bus_stop_ioeventfd(ptr noundef nonnull %3) #15
  br label %29

29:                                               ; preds = %28, %26
  ret void
}